; Function Attrs: mustprogress nofree norecurse nosync nounwind willreturn memory(argmem: readwrite) uwtable
define dso_local noundef range(i32 0, 3) i32 @_ZN22btRotationalLimitMotor14testLimitValueEf(ptr noundef nonnull align 4 captures(none) dereferenceable(64) initializes((56, 60)) %0, float noundef %1) local_unnamed_addr #7 align 2 {
  %3 = load float, ptr %0, align 4, !tbaa !25
  %4 = getelementptr inbounds nuw i8, ptr %0, i64 4
  %5 = load float, ptr %4, align 4, !tbaa !26
  %6 = fcmp ogt float %3, %5
  br i1 %6, label %7, label %9

7:                                                ; preds = %2
  %8 = getelementptr inbounds nuw i8, ptr %0, i64 56
  store i32 0, ptr %8, align 4, !tbaa !33
  br label %36

9:                                                ; preds = %2
  %10 = fcmp olt float %1, %3
  br i1 %10, label %11, label %22

11:                                               ; preds = %9
  %12 = getelementptr inbounds nuw i8, ptr %0, i64 56
  store i32 1, ptr %12, align 4, !tbaa !33
  %13 = fsub float %1, %3
  %14 = getelementptr inbounds nuw i8, ptr %0, i64 48
  store float %13, ptr %14, align 4, !tbaa !34
  %15 = fcmp ogt float %13, 0x400921FB60000000
  br i1 %15, label %16, label %18

16:                                               ; preds = %11
  %17 = fadd float %13, 0xC01921FB60000000
  store float %17, ptr %14, align 4, !tbaa !34
  br label %36

18:                                               ; preds = %11
  %19 = fcmp olt float %13, 0xC00921FB60000000
  br i1 %19, label %20, label %36

20:                                               ; preds = %18
  %21 = fadd float %13, 0x401921FB60000000
  store float %21, ptr %14, align 4, !tbaa !34
  br label %36

22:                                               ; preds = %9
  %23 = fcmp ogt float %1, %5
  %24 = getelementptr inbounds nuw i8, ptr %0, i64 56
  br i1 %23, label %25, label %35

25:                                               ; preds = %22
  store i32 2, ptr %24, align 4, !tbaa !33
  %26 = fsub float %1, %5
  %27 = getelementptr inbounds nuw i8, ptr %0, i64 48
  store float %26, ptr %27, align 4, !tbaa !34
  %28 = fcmp ogt float %26, 0x400921FB60000000
  br i1 %28, label %29, label %31

29:                                               ; preds = %25
  %30 = fadd float %26, 0xC01921FB60000000
  store float %30, ptr %27, align 4, !tbaa !34
  br label %36

31:                                               ; preds = %25
  %32 = fcmp olt float %26, 0xC00921FB60000000
  br i1 %32, label %33, label %36

33:                                               ; preds = %31
  %34 = fadd float %26, 0x401921FB60000000
  store float %34, ptr %27, align 4, !tbaa !34
  br label %36

35:                                               ; preds = %22
  store i32 0, ptr %24, align 4, !tbaa !33
  br label %36

36:                                               ; preds = %29, %33, %31, %16, %20, %18, %35, %7
  %.0 = phi i32 [ 0, %7 ], [ 0, %35 ], [ 1, %18 ], [ 1, %20 ], [ 1, %16 ], [ 2, %31 ], [ 2, %33 ], [ 2, %29 ]
  ret i32 %.0
}